#include <math.h>
#include <stdio.h>
#include <stdlib.h>
#include <string.h>

int main()
{
	int n;
	scanf("%d",&n);
	int a[100];
	int i;
	for(i=0;i<n;i++)
	{
		scanf("%d",&a[i]);
		int b[100];
		b[0]=1;
		b[1]=1;
		int j;
		for(j=2;j<100;j++)
		{
			b[j]=b[j-1]+b[j-2];
		}
		printf("%d\n",b[a[i]-1]);
	}
	return 0;
}
	
